target datalayout = "e-m:e-p270:32:32-p271:32:32-p272:64:64-i64:64-i128:128-f80:128-n8:16:32:64-S128"
target triple = "x86_64-pc-linux-gnu"

@.str.360 = private unnamed_addr constant [46 x i8] c"../cpython/Modules/_testlimitedcapi/unicode.c\00", align 1
@.str.371 = private unnamed_addr constant [5 x i8] c"(Nn)\00", align 1
@.str.378 = private unnamed_addr constant [5 x i8] c"y#|z\00", align 1
@.str.379 = private unnamed_addr constant [31 x i8] c"consumed == UNINITIALIZED_SIZE\00", align 1
@__PRETTY_FUNCTION__.unicode_decodeutf7stateful = private unnamed_addr constant [61 x i8] c"PyObject *unicode_decodeutf7stateful(PyObject *, PyObject *)\00", align 1

; Function Attrs: nounwind uwtable
define internal ptr @unicode_decodeutf7stateful(ptr noundef %0, ptr noundef %1) #0 {
  %3 = alloca ptr, align 8
  %4 = alloca ptr, align 8
  %5 = alloca ptr, align 8
  %6 = alloca ptr, align 8
  %7 = alloca i64, align 8
  %8 = alloca ptr, align 8
  %9 = alloca i64, align 8
  %10 = alloca ptr, align 8
  %11 = alloca i32, align 4
  store ptr %0, ptr %4, align 8, !tbaa !3
  store ptr %1, ptr %5, align 8, !tbaa !3
  call void @llvm.lifetime.start.p0(i64 8, ptr %6) #7
  call void @llvm.lifetime.start.p0(i64 8, ptr %7) #7
  call void @llvm.lifetime.start.p0(i64 8, ptr %8) #7
  store ptr null, ptr %8, align 8, !tbaa !8
  call void @llvm.lifetime.start.p0(i64 8, ptr %9) #7
  store i64 236892191, ptr %9, align 8, !tbaa !12
  call void @llvm.lifetime.start.p0(i64 8, ptr %10) #7
  %12 = load ptr, ptr %5, align 8, !tbaa !3
  %13 = call i32 (ptr, ptr, ...) @PyArg_ParseTuple(ptr noundef %12, ptr noundef @.str.378, ptr noundef %6, ptr noundef %7, ptr noundef %8)
  %14 = icmp ne i32 %13, 0
  br i1 %14, label %16, label %15

15:                                               ; preds = %2
  store ptr null, ptr %3, align 8
  store i32 1, ptr %11, align 4
  br label %34

16:                                               ; preds = %2
  %17 = load ptr, ptr %6, align 8, !tbaa !8
  %18 = load i64, ptr %7, align 8, !tbaa !12
  %19 = load ptr, ptr %8, align 8, !tbaa !8
  %20 = call ptr @PyUnicode_DecodeUTF7Stateful(ptr noundef %17, i64 noundef %18, ptr noundef %19, ptr noundef %9)
  store ptr %20, ptr %10, align 8, !tbaa !3
  %21 = load ptr, ptr %10, align 8, !tbaa !3
  %22 = icmp ne ptr %21, null
  br i1 %22, label %30, label %23

23:                                               ; preds = %16
  %24 = load i64, ptr %9, align 8, !tbaa !12
  %25 = icmp eq i64 %24, 236892191
  br i1 %25, label %26, label %27

26:                                               ; preds = %23
  br label %29

27:                                               ; preds = %23
  call void @__assert_fail(ptr noundef @.str.379, ptr noundef @.str.360, i32 noundef 608, ptr noundef @__PRETTY_FUNCTION__.unicode_decodeutf7stateful) #8
  unreachable

28:                                               ; No predecessors!
  br label %29

29:                                               ; preds = %28, %26
  store ptr null, ptr %3, align 8
  store i32 1, ptr %11, align 4
  br label %34

30:                                               ; preds = %16
  %31 = load ptr, ptr %10, align 8, !tbaa !3
  %32 = load i64, ptr %9, align 8, !tbaa !12
  %33 = call ptr (ptr, ...) @Py_BuildValue(ptr noundef @.str.371, ptr noundef %31, i64 noundef %32)
  store ptr %33, ptr %3, align 8
  store i32 1, ptr %11, align 4
  br label %34

34:                                               ; preds = %30, %29, %15
  call void @llvm.lifetime.end.p0(i64 8, ptr %10) #7
  call void @llvm.lifetime.end.p0(i64 8, ptr %9) #7
  call void @llvm.lifetime.end.p0(i64 8, ptr %8) #7
  call void @llvm.lifetime.end.p0(i64 8, ptr %7) #7
  call void @llvm.lifetime.end.p0(i64 8, ptr %6) #7
  %35 = load ptr, ptr %3, align 8
  ret ptr %35
}